; Function Attrs: mustprogress uwtable
define internal fastcc void @_ZL16checkLabelsMatchPKcPKNSt7__cxx1112basic_stringIcSt11char_traitsIcESaIcEEES8_(ptr noundef %0, ptr noundef readonly captures(address_is_null) %1, ptr noundef readonly captures(address_is_null) %2) unnamed_addr #5 personality ptr @__gxx_personality_v0 {
  %4 = icmp eq ptr %1, null
  %5 = icmp ne ptr %2, null
  %or.cond = and i1 %4, %5
  br i1 %or.cond, label %.thread, label %8

.thread:                                          ; preds = %3
  %6 = load ptr, ptr %2, align 8, !tbaa !13
  %7 = getelementptr inbounds nuw i8, ptr %6, i64 1
  tail call void (ptr, ...) @_Z24frontend_verilog_yyerrorPKcz(ptr noundef nonnull @.str.633, ptr noundef %0, ptr noundef nonnull %7)
  br label %_ZStneIcSt11char_traitsIcESaIcEEbRKNSt7__cxx1112basic_stringIT_T0_T1_EESA_.exit.thread16

8:                                                ; preds = %3
  %9 = icmp ne ptr %1, null
  %or.cond3 = and i1 %9, %5
  br i1 %or.cond3, label %10, label %_ZStneIcSt11char_traitsIcESaIcEEbRKNSt7__cxx1112basic_stringIT_T0_T1_EESA_.exit.thread16

10:                                               ; preds = %8
  %11 = getelementptr inbounds nuw i8, ptr %1, i64 8
  %12 = load i64, ptr %11, align 8, !tbaa !18
  %13 = getelementptr inbounds nuw i8, ptr %2, i64 8
  %14 = load i64, ptr %13, align 8, !tbaa !18
  %15 = icmp eq i64 %12, %14
  br i1 %15, label %16, label %._ZStneIcSt11char_traitsIcESaIcEEbRKNSt7__cxx1112basic_stringIT_T0_T1_EESA_.exit.thread_crit_edge

._ZStneIcSt11char_traitsIcESaIcEEbRKNSt7__cxx1112basic_stringIT_T0_T1_EESA_.exit.thread_crit_edge: ; preds = %10
  %.pre = load ptr, ptr %1, align 8, !tbaa !13
  %.pre17 = load ptr, ptr %2, align 8, !tbaa !13
  br label %_ZStneIcSt11char_traitsIcESaIcEEbRKNSt7__cxx1112basic_stringIT_T0_T1_EESA_.exit.thread

16:                                               ; preds = %10
  %17 = icmp eq i64 %12, 0
  br i1 %17, label %_ZStneIcSt11char_traitsIcESaIcEEbRKNSt7__cxx1112basic_stringIT_T0_T1_EESA_.exit.thread16, label %_ZStneIcSt11char_traitsIcESaIcEEbRKNSt7__cxx1112basic_stringIT_T0_T1_EESA_.exit

_ZStneIcSt11char_traitsIcESaIcEEbRKNSt7__cxx1112basic_stringIT_T0_T1_EESA_.exit: ; preds = %16
  %18 = load ptr, ptr %2, align 8, !tbaa !13
  %19 = load ptr, ptr %1, align 8, !tbaa !13
  %bcmp.i.i = tail call i32 @bcmp(ptr %19, ptr %18, i64 %12)
  %.not = icmp eq i32 %bcmp.i.i, 0
  br i1 %.not, label %_ZStneIcSt11char_traitsIcESaIcEEbRKNSt7__cxx1112basic_stringIT_T0_T1_EESA_.exit.thread16, label %_ZStneIcSt11char_traitsIcESaIcEEbRKNSt7__cxx1112basic_stringIT_T0_T1_EESA_.exit.thread

_ZStneIcSt11char_traitsIcESaIcEEbRKNSt7__cxx1112basic_stringIT_T0_T1_EESA_.exit.thread: ; preds = %._ZStneIcSt11char_traitsIcESaIcEEbRKNSt7__cxx1112basic_stringIT_T0_T1_EESA_.exit.thread_crit_edge, %_ZStneIcSt11char_traitsIcESaIcEEbRKNSt7__cxx1112basic_stringIT_T0_T1_EESA_.exit
  %20 = phi ptr [ %.pre17, %._ZStneIcSt11char_traitsIcESaIcEEbRKNSt7__cxx1112basic_stringIT_T0_T1_EESA_.exit.thread_crit_edge ], [ %18, %_ZStneIcSt11char_traitsIcESaIcEEbRKNSt7__cxx1112basic_stringIT_T0_T1_EESA_.exit ]
  %21 = phi ptr [ %.pre, %._ZStneIcSt11char_traitsIcESaIcEEbRKNSt7__cxx1112basic_stringIT_T0_T1_EESA_.exit.thread_crit_edge ], [ %19, %_ZStneIcSt11char_traitsIcESaIcEEbRKNSt7__cxx1112basic_stringIT_T0_T1_EESA_.exit ]
  %22 = getelementptr inbounds nuw i8, ptr %21, i64 1
  %23 = getelementptr inbounds nuw i8, ptr %20, i64 1
  tail call void (ptr, ...) @_Z24frontend_verilog_yyerrorPKcz(ptr noundef nonnull @.str.634, ptr noundef %0, ptr noundef nonnull %22, ptr noundef nonnull %23)
  br label %_ZStneIcSt11char_traitsIcESaIcEEbRKNSt7__cxx1112basic_stringIT_T0_T1_EESA_.exit.thread16

_ZStneIcSt11char_traitsIcESaIcEEbRKNSt7__cxx1112basic_stringIT_T0_T1_EESA_.exit.thread16: ; preds = %16, %.thread, %_ZStneIcSt11char_traitsIcESaIcEEbRKNSt7__cxx1112basic_stringIT_T0_T1_EESA_.exit.thread, %_ZStneIcSt11char_traitsIcESaIcEEbRKNSt7__cxx1112basic_stringIT_T0_T1_EESA_.exit, %8
  ret void
}